target datalayout = "e-m:e-p270:32:32-p271:32:32-p272:64:64-i64:64-i128:128-f80:128-n8:16:32:64-S128"
target triple = "x86_64-unknown-linux-gnu"

%"class.re2::Regexp" = type { i8, i8, i16, i16, i16, %union.anon, ptr, %union.anon.0 }
%union.anon = type { ptr }
%union.anon.0 = type { %struct.anon.1 }
%struct.anon.1 = type { i32, ptr }
%struct.anon.3 = type { ptr, ptr }
%"class.re2::CharClassBuilder" = type { i32, i32, i32, %"class.std::set" }
%"class.std::set" = type { %"class.std::_Rb_tree" }
%"class.std::_Rb_tree" = type { %"struct.std::_Rb_tree<re2::RuneRange, re2::RuneRange, std::_Identity<re2::RuneRange>, re2::RuneRangeLess>::_Rb_tree_impl" }
%"struct.std::_Rb_tree<re2::RuneRange, re2::RuneRange, std::_Identity<re2::RuneRange>, re2::RuneRangeLess>::_Rb_tree_impl" = type { %"struct.std::_Rb_tree_key_compare", %"struct.std::_Rb_tree_header" }
%"struct.std::_Rb_tree_key_compare" = type { %"struct.re2::RuneRangeLess" }
%"struct.re2::RuneRangeLess" = type { i8 }
%"struct.std::_Rb_tree_header" = type { %"struct.std::_Rb_tree_node_base", i64 }
%"struct.std::_Rb_tree_node_base" = type { i32, ptr, ptr, ptr }

; Function Attrs: mustprogress nounwind uwtable
define linkonce_odr void @_ZNSt15__new_allocatorISt13_Rb_tree_nodeIN3re29RuneRangeEEED2Ev(ptr noundef nonnull align 1 dereferenceable(1) %this) unnamed_addr #0 comdat align 2 {
entry:
  %this.addr = alloca ptr, align 8
  store ptr %this, ptr %this.addr, align 8
  ret void
}

; Function Attrs: mustprogress nounwind uwtable
define linkonce_odr void @_ZNSaISt13_Rb_tree_nodeIN3re29RuneRangeEEED2Ev(ptr noundef nonnull align 1 dereferenceable(1) %this) unnamed_addr #0 comdat align 2 {
entry:
  %this.addr = alloca ptr, align 8
  store ptr %this, ptr %this.addr, align 8
  %this1 = load ptr, ptr %this.addr, align 8
  call void @_ZNSt15__new_allocatorISt13_Rb_tree_nodeIN3re29RuneRangeEEED2Ev(ptr noundef nonnull align 1 dereferenceable(1) %this1) #12
  ret void
}

; Function Attrs: mustprogress nounwind uwtable
define linkonce_odr noundef ptr @_ZNKSt8_Rb_treeIN3re29RuneRangeES1_St9_IdentityIS1_ENS0_13RuneRangeLessESaIS1_EE9_M_mbeginEv(ptr noundef nonnull align 8 dereferenceable(48) %this) #0 comdat align 2 {
entry:
  %this.addr = alloca ptr, align 8
  store ptr %this, ptr %this.addr, align 8
  %this1 = load ptr, ptr %this.addr, align 8
  %_M_impl = getelementptr inbounds %"class.std::_Rb_tree", ptr %this1, i32 0, i32 0
  %add.ptr = getelementptr inbounds i8, ptr %_M_impl, i64 8
  %_M_header = getelementptr inbounds %"struct.std::_Rb_tree_header", ptr %add.ptr, i32 0, i32 0
  %_M_parent = getelementptr inbounds %"struct.std::_Rb_tree_node_base", ptr %_M_header, i32 0, i32 1
  %0 = load ptr, ptr %_M_parent, align 8
  ret ptr %0
}

; Function Attrs: mustprogress nounwind uwtable
define linkonce_odr void @_ZNSt8_Rb_treeIN3re29RuneRangeES1_St9_IdentityIS1_ENS0_13RuneRangeLessESaIS1_EE13_Rb_tree_implIS4_Lb1EED2Ev(ptr noundef nonnull align 8 dereferenceable(48) %this) unnamed_addr #0 comdat align 2 {
entry:
  %this.addr = alloca ptr, align 8
  store ptr %this, ptr %this.addr, align 8
  %this1 = load ptr, ptr %this.addr, align 8
  call void @_ZNSaISt13_Rb_tree_nodeIN3re29RuneRangeEEED2Ev(ptr noundef nonnull align 1 dereferenceable(1) %this1) #12
  ret void
}

; Function Attrs: mustprogress nounwind uwtable
define linkonce_odr noundef ptr @_ZNSt8_Rb_treeIN3re29RuneRangeES1_St9_IdentityIS1_ENS0_13RuneRangeLessESaIS1_EE8_M_beginEv(ptr noundef nonnull align 8 dereferenceable(48) %this) #0 comdat align 2 {
entry:
  %this.addr = alloca ptr, align 8
  store ptr %this, ptr %this.addr, align 8
  %this1 = load ptr, ptr %this.addr, align 8
  %call = call noundef ptr @_ZNKSt8_Rb_treeIN3re29RuneRangeES1_St9_IdentityIS1_ENS0_13RuneRangeLessESaIS1_EE9_M_mbeginEv(ptr noundef nonnull align 8 dereferenceable(48) %this1) #12
  ret ptr %call
}

; Function Attrs: mustprogress nounwind uwtable
define linkonce_odr void @_ZNSt8_Rb_treeIN3re29RuneRangeES1_St9_IdentityIS1_ENS0_13RuneRangeLessESaIS1_EED2Ev(ptr noundef nonnull align 8 dereferenceable(48) %this) unnamed_addr #0 comdat align 2 personality ptr @__gxx_personality_v0 {
entry:
  %this.addr = alloca ptr, align 8
  store ptr %this, ptr %this.addr, align 8
  %this1 = load ptr, ptr %this.addr, align 8
  %call = call noundef ptr @_ZNSt8_Rb_treeIN3re29RuneRangeES1_St9_IdentityIS1_ENS0_13RuneRangeLessESaIS1_EE8_M_beginEv(ptr noundef nonnull align 8 dereferenceable(48) %this1) #12
  invoke void @_ZNSt8_Rb_treeIN3re29RuneRangeES1_St9_IdentityIS1_ENS0_13RuneRangeLessESaIS1_EE8_M_eraseEPSt13_Rb_tree_nodeIS1_E(ptr noundef nonnull align 8 dereferenceable(48) %this1, ptr noundef %call)
          to label %invoke.cont unwind label %terminate.lpad

invoke.cont:                                      ; preds = %entry
  %_M_impl = getelementptr inbounds %"class.std::_Rb_tree", ptr %this1, i32 0, i32 0
  call void @_ZNSt8_Rb_treeIN3re29RuneRangeES1_St9_IdentityIS1_ENS0_13RuneRangeLessESaIS1_EE13_Rb_tree_implIS4_Lb1EED2Ev(ptr noundef nonnull align 8 dereferenceable(48) %_M_impl) #12
  ret void

terminate.lpad:                                   ; preds = %entry
  %0 = landingpad { ptr, i32 }
          catch ptr null
  %1 = extractvalue { ptr, i32 } %0, 0
  call void @__clang_call_terminate(ptr %1) #14
  unreachable
}

; Function Attrs: mustprogress nounwind uwtable
define linkonce_odr void @_ZNSt3setIN3re29RuneRangeENS0_13RuneRangeLessESaIS1_EED2Ev(ptr noundef nonnull align 8 dereferenceable(48) %this) unnamed_addr #0 comdat align 2 {
entry:
  %this.addr = alloca ptr, align 8
  store ptr %this, ptr %this.addr, align 8
  %this1 = load ptr, ptr %this.addr, align 8
  %_M_t = getelementptr inbounds %"class.std::set", ptr %this1, i32 0, i32 0
  call void @_ZNSt8_Rb_treeIN3re29RuneRangeES1_St9_IdentityIS1_ENS0_13RuneRangeLessESaIS1_EED2Ev(ptr noundef nonnull align 8 dereferenceable(48) %_M_t) #12
  ret void
}

; Function Attrs: mustprogress nounwind uwtable
define linkonce_odr void @_ZN3re216CharClassBuilderD2Ev(ptr noundef nonnull align 8 dereferenceable(64) %this) unnamed_addr #0 comdat align 2 {
entry:
  %this.addr = alloca ptr, align 8
  store ptr %this, ptr %this.addr, align 8
  %this1 = load ptr, ptr %this.addr, align 8
  %ranges_ = getelementptr inbounds %"class.re2::CharClassBuilder", ptr %this1, i32 0, i32 3
  call void @_ZNSt3setIN3re29RuneRangeENS0_13RuneRangeLessESaIS1_EED2Ev(ptr noundef nonnull align 8 dereferenceable(48) %ranges_) #12
  ret void
}

; Function Attrs: mustprogress uwtable
define noundef ptr @_ZN3re26Regexp10ParseState12FinishRegexpEPS0_(ptr noundef nonnull align 8 dereferenceable(48) %this, ptr noundef %re) #1 align 2 {
entry:
  %retval = alloca ptr, align 8
  %this.addr = alloca ptr, align 8
  %re.addr = alloca ptr, align 8
  %ccb = alloca ptr, align 8
  store ptr %this, ptr %this.addr, align 8
  store ptr %re, ptr %re.addr, align 8
  %0 = load ptr, ptr %re.addr, align 8
  %cmp = icmp eq ptr %0, null
  br i1 %cmp, label %if.then, label %if.end

if.then:                                          ; preds = %entry
  store ptr null, ptr %retval, align 8
  br label %return

if.end:                                           ; preds = %entry
  %1 = load ptr, ptr %re.addr, align 8
  %down_ = getelementptr inbounds %"class.re2::Regexp", ptr %1, i32 0, i32 6
  store ptr null, ptr %down_, align 8
  %2 = load ptr, ptr %re.addr, align 8
  %op_ = getelementptr inbounds %"class.re2::Regexp", ptr %2, i32 0, i32 0
  %3 = load i8, ptr %op_, align 8
  %conv = zext i8 %3 to i32
  %cmp2 = icmp eq i32 %conv, 20
  br i1 %cmp2, label %land.lhs.true, label %if.end7

land.lhs.true:                                    ; preds = %if.end
  %4 = load ptr, ptr %re.addr, align 8
  %5 = getelementptr inbounds %"class.re2::Regexp", ptr %4, i32 0, i32 7
  %ccb_ = getelementptr inbounds %struct.anon.3, ptr %5, i32 0, i32 1
  %6 = load ptr, ptr %ccb_, align 8
  %cmp3 = icmp ne ptr %6, null
  br i1 %cmp3, label %if.then4, label %if.end7

if.then4:                                         ; preds = %land.lhs.true
  %7 = load ptr, ptr %re.addr, align 8
  %8 = getelementptr inbounds %"class.re2::Regexp", ptr %7, i32 0, i32 7
  %ccb_5 = getelementptr inbounds %struct.anon.3, ptr %8, i32 0, i32 1
  %9 = load ptr, ptr %ccb_5, align 8
  store ptr %9, ptr %ccb, align 8
  %10 = load ptr, ptr %re.addr, align 8
  %11 = getelementptr inbounds %"class.re2::Regexp", ptr %10, i32 0, i32 7
  %ccb_6 = getelementptr inbounds %struct.anon.3, ptr %11, i32 0, i32 1
  store ptr null, ptr %ccb_6, align 8
  %12 = load ptr, ptr %ccb, align 8
  %call = call noundef ptr @_ZN3re216CharClassBuilder12GetCharClassEv(ptr noundef nonnull align 8 dereferenceable(64) %12)
  %13 = load ptr, ptr %re.addr, align 8
  %14 = getelementptr inbounds %"class.re2::Regexp", ptr %13, i32 0, i32 7
  %cc_ = getelementptr inbounds %struct.anon.3, ptr %14, i32 0, i32 0
  store ptr %call, ptr %cc_, align 8
  %15 = load ptr, ptr %ccb, align 8
  %isnull = icmp eq ptr %15, null
  br i1 %isnull, label %delete.end, label %delete.notnull

delete.notnull:                                   ; preds = %if.then4
  call void @_ZN3re216CharClassBuilderD2Ev(ptr noundef nonnull align 8 dereferenceable(64) %15) #12
  call void @_ZdlPv(ptr noundef %15) #13
  br label %delete.end

delete.end:                                       ; preds = %delete.notnull, %if.then4
  br label %if.end7

if.end7:                                          ; preds = %delete.end, %land.lhs.true, %if.end
  %16 = load ptr, ptr %re.addr, align 8
  store ptr %16, ptr %retval, align 8
  br label %return

return:                                           ; preds = %if.end7, %if.then
  %17 = load ptr, ptr %retval, align 8
  ret ptr %17
}