; Function Attrs: mustprogress uwtable
define noundef ptr @_ZN3re26Regexp10ParseState12FinishRegexpEPS0_(ptr nocapture noundef nonnull readnone align 8 dereferenceable(48) %this, ptr noundef returned %re) local_unnamed_addr #8 align 2 personality ptr @__gxx_personality_v0 {
entry:
  %cmp = icmp eq ptr %re, null
  br i1 %cmp, label %return, label %if.end

if.end:                                           ; preds = %entry
  %down_ = getelementptr inbounds i8, ptr %re, i64 16
  store ptr null, ptr %down_, align 8
  %0 = load i8, ptr %re, align 8
  %cmp2 = icmp eq i8 %0, 20
  br i1 %cmp2, label %land.lhs.true, label %return

land.lhs.true:                                    ; preds = %if.end
  %ccb_ = getelementptr inbounds i8, ptr %re, i64 32
  %1 = load ptr, ptr %ccb_, align 8
  %cmp3.not = icmp eq ptr %1, null
  br i1 %cmp3.not, label %return, label %if.then4

if.then4:                                         ; preds = %land.lhs.true
  %2 = getelementptr inbounds i8, ptr %re, i64 24
  store ptr null, ptr %ccb_, align 8
  %call = tail call noundef ptr @_ZN3re216CharClassBuilder12GetCharClassEv(ptr noundef nonnull align 8 dereferenceable(64) %1)
  store ptr %call, ptr %2, align 8
  %ranges_.i = getelementptr inbounds i8, ptr %1, i64 16
  %_M_parent.i.i.i.i.i = getelementptr inbounds i8, ptr %1, i64 32
  %3 = load ptr, ptr %_M_parent.i.i.i.i.i, align 8
  invoke void @_ZNSt8_Rb_treeIN3re29RuneRangeES1_St9_IdentityIS1_ENS0_13RuneRangeLessESaIS1_EE8_M_eraseEPSt13_Rb_tree_nodeIS1_E(ptr noundef nonnull align 8 dereferenceable(48) %ranges_.i, ptr noundef %3)
          to label %_ZN3re216CharClassBuilderD2Ev.exit unwind label %terminate.lpad.i.i.i

terminate.lpad.i.i.i:                             ; preds = %if.then4
  %4 = landingpad { ptr, i32 }
          catch ptr null
  %5 = extractvalue { ptr, i32 } %4, 0
  tail call void @__clang_call_terminate(ptr %5) #27
  unreachable

_ZN3re216CharClassBuilderD2Ev.exit:               ; preds = %if.then4
  tail call void @_ZdlPv(ptr noundef nonnull %1) #26
  br label %return

return:                                           ; preds = %if.end, %land.lhs.true, %_ZN3re216CharClassBuilderD2Ev.exit, %entry
  ret ptr %re
}